target datalayout = "e-m:e-p270:32:32-p271:32:32-p272:64:64-i64:64-i128:128-f80:128-n8:16:32:64-S128"
target triple = "x86_64-pc-linux-gnu"

%"class.OpenSubdiv::v3_6_0::Sdc::Crease" = type { %"class.OpenSubdiv::v3_6_0::Sdc::Options" }
%"class.OpenSubdiv::v3_6_0::Sdc::Options" = type { i8, i8, i8, i8 }

; Function Attrs: mustprogress nounwind uwtable
define linkonce_odr noundef i32 @_ZNK10OpenSubdiv6v3_6_03Sdc7Options17GetCreasingMethodEv(ptr noundef nonnull align 1 dereferenceable(4) %0) #1 comdat align 2 {
  %2 = alloca ptr, align 8
  store ptr %0, ptr %2, align 8
  %3 = load ptr, ptr %2, align 8
  %4 = getelementptr inbounds nuw %"class.OpenSubdiv::v3_6_0::Sdc::Options", ptr %3, i32 0, i32 2
  %5 = load i8, ptr %4, align 1
  %6 = zext i8 %5 to i32
  ret i32 %6
}

; Function Attrs: mustprogress nounwind uwtable
define linkonce_odr noundef zeroext i1 @_ZN10OpenSubdiv6v3_6_03Sdc6Crease7IsSharpEf(float noundef %0) #1 comdat align 2 {
  %2 = alloca float, align 4
  store float %0, ptr %2, align 4
  %3 = load float, ptr %2, align 4
  %4 = fcmp ogt float %3, 0.000000e+00
  ret i1 %4
}

; Function Attrs: mustprogress nounwind uwtable
define linkonce_odr noundef zeroext i1 @_ZN10OpenSubdiv6v3_6_03Sdc6Crease11IsSemiSharpEf(float noundef %0) #1 comdat align 2 {
  %2 = alloca float, align 4
  store float %0, ptr %2, align 4
  %3 = load float, ptr %2, align 4
  %4 = fcmp olt float 0.000000e+00, %3
  br i1 %4, label %5, label %8

5:                                                ; preds = %1
  %6 = load float, ptr %2, align 4
  %7 = fcmp olt float %6, 1.000000e+01
  br label %8

8:                                                ; preds = %5, %1
  %9 = phi i1 [ false, %1 ], [ %7, %5 ]
  ret i1 %9
}

; Function Attrs: mustprogress nounwind uwtable
define linkonce_odr noundef zeroext i1 @_ZN10OpenSubdiv6v3_6_03Sdc6Crease10IsInfiniteEf(float noundef %0) #1 comdat align 2 {
  %2 = alloca float, align 4
  store float %0, ptr %2, align 4
  %3 = load float, ptr %2, align 4
  %4 = fcmp oge float %3, 1.000000e+01
  ret i1 %4
}

; Function Attrs: mustprogress nounwind uwtable
define linkonce_odr noundef zeroext i1 @_ZN10OpenSubdiv6v3_6_03Sdc6Crease8IsSmoothEf(float noundef %0) #1 comdat align 2 {
  %2 = alloca float, align 4
  store float %0, ptr %2, align 4
  %3 = load float, ptr %2, align 4
  %4 = fcmp ole float %3, 0.000000e+00
  ret i1 %4
}

; Function Attrs: mustprogress uwtable
define linkonce_odr noundef float @_ZNK10OpenSubdiv6v3_6_03Sdc6Crease18decrementSharpnessEf(ptr noundef nonnull align 1 dereferenceable(4) %0, float noundef %1) #0 comdat align 2 {
  %3 = alloca float, align 4
  %4 = alloca ptr, align 8
  %5 = alloca float, align 4
  store ptr %0, ptr %4, align 8
  store float %1, ptr %5, align 4
  %6 = load float, ptr %5, align 4
  %7 = call noundef zeroext i1 @_ZN10OpenSubdiv6v3_6_03Sdc6Crease8IsSmoothEf(float noundef %6)
  br i1 %7, label %8, label %9

8:                                                ; preds = %2
  store float 0.000000e+00, ptr %3, align 4
  br label %20

9:                                                ; preds = %2
  %10 = load float, ptr %5, align 4
  %11 = call noundef zeroext i1 @_ZN10OpenSubdiv6v3_6_03Sdc6Crease10IsInfiniteEf(float noundef %10)
  br i1 %11, label %12, label %13

12:                                               ; preds = %9
  store float 1.000000e+01, ptr %3, align 4
  br label %20

13:                                               ; preds = %9
  %14 = load float, ptr %5, align 4
  %15 = fcmp ogt float %14, 1.000000e+00
  br i1 %15, label %16, label %19

16:                                               ; preds = %13
  %17 = load float, ptr %5, align 4
  %18 = fsub float %17, 1.000000e+00
  store float %18, ptr %3, align 4
  br label %20

19:                                               ; preds = %13
  store float 0.000000e+00, ptr %3, align 4
  br label %20

20:                                               ; preds = %19, %16, %12, %8
  %21 = load float, ptr %3, align 4
  ret float %21
}

; Function Attrs: mustprogress uwtable
define linkonce_odr noundef zeroext i1 @_ZNK10OpenSubdiv6v3_6_03Sdc6Crease9IsUniformEv(ptr noundef nonnull align 1 dereferenceable(4) %0) #0 comdat align 2 {
  %2 = alloca ptr, align 8
  store ptr %0, ptr %2, align 8
  %3 = load ptr, ptr %2, align 8
  %4 = getelementptr inbounds nuw %"class.OpenSubdiv::v3_6_0::Sdc::Crease", ptr %3, i32 0, i32 0
  %5 = call noundef i32 @_ZNK10OpenSubdiv6v3_6_03Sdc7Options17GetCreasingMethodEv(ptr noundef nonnull align 1 dereferenceable(4) %4)
  %6 = icmp eq i32 %5, 0
  ret i1 %6
}

; Function Attrs: mustprogress uwtable
define noundef float @_ZNK10OpenSubdiv6v3_6_03Sdc6Crease30SubdivideEdgeSharpnessAtVertexEfiPKf(ptr noundef nonnull align 1 dereferenceable(4) %0, float noundef %1, i32 noundef %2, ptr noundef %3) #0 align 2 {
  %5 = alloca float, align 4
  %6 = alloca ptr, align 8
  %7 = alloca float, align 4
  %8 = alloca i32, align 4
  %9 = alloca ptr, align 8
  %10 = alloca float, align 4
  %11 = alloca i32, align 4
  %12 = alloca i32, align 4
  %13 = alloca float, align 4
  store ptr %0, ptr %6, align 8
  store float %1, ptr %7, align 4
  store i32 %2, ptr %8, align 4
  store ptr %3, ptr %9, align 8
  %14 = load ptr, ptr %6, align 8
  %15 = call noundef zeroext i1 @_ZNK10OpenSubdiv6v3_6_03Sdc6Crease9IsUniformEv(ptr noundef nonnull align 1 dereferenceable(4) %14)
  br i1 %15, label %19, label %16

16:                                               ; preds = %4
  %17 = load i32, ptr %8, align 4
  %18 = icmp slt i32 %17, 2
  br i1 %18, label %19, label %22

19:                                               ; preds = %16, %4
  %20 = load float, ptr %7, align 4
  %21 = call noundef float @_ZNK10OpenSubdiv6v3_6_03Sdc6Crease18decrementSharpnessEf(ptr noundef nonnull align 1 dereferenceable(4) %14, float noundef %20)
  store float %21, ptr %5, align 4
  br label %81

22:                                               ; preds = %16
  %23 = load float, ptr %7, align 4
  %24 = call noundef zeroext i1 @_ZN10OpenSubdiv6v3_6_03Sdc6Crease8IsSmoothEf(float noundef %23)
  br i1 %24, label %25, label %26

25:                                               ; preds = %22
  store float 0.000000e+00, ptr %5, align 4
  br label %81

26:                                               ; preds = %22
  %27 = load float, ptr %7, align 4
  %28 = call noundef zeroext i1 @_ZN10OpenSubdiv6v3_6_03Sdc6Crease10IsInfiniteEf(float noundef %27)
  br i1 %28, label %29, label %30

29:                                               ; preds = %26
  store float 1.000000e+01, ptr %5, align 4
  br label %81

30:                                               ; preds = %26
  store float 0.000000e+00, ptr %10, align 4
  store i32 0, ptr %11, align 4
  store i32 0, ptr %12, align 4
  br label %31

31:                                               ; preds = %53, %30
  %32 = load i32, ptr %12, align 4
  %33 = load i32, ptr %8, align 4
  %34 = icmp slt i32 %32, %33
  br i1 %34, label %35, label %56

35:                                               ; preds = %31
  %36 = load ptr, ptr %9, align 8
  %37 = load i32, ptr %12, align 4
  %38 = sext i32 %37 to i64
  %39 = getelementptr inbounds float, ptr %36, i64 %38
  %40 = load float, ptr %39, align 4
  %41 = call noundef zeroext i1 @_ZN10OpenSubdiv6v3_6_03Sdc6Crease11IsSemiSharpEf(float noundef %40)
  br i1 %41, label %42, label %52

42:                                               ; preds = %35
  %43 = load i32, ptr %11, align 4
  %44 = add nsw i32 %43, 1
  store i32 %44, ptr %11, align 4
  %45 = load ptr, ptr %9, align 8
  %46 = load i32, ptr %12, align 4
  %47 = sext i32 %46 to i64
  %48 = getelementptr inbounds float, ptr %45, i64 %47
  %49 = load float, ptr %48, align 4
  %50 = load float, ptr %10, align 4
  %51 = fadd float %50, %49
  store float %51, ptr %10, align 4
  br label %52

52:                                               ; preds = %42, %35
  br label %53

53:                                               ; preds = %52
  %54 = load i32, ptr %12, align 4
  %55 = add nsw i32 %54, 1
  store i32 %55, ptr %12, align 4
  br label %31, !llvm.loop !9

56:                                               ; preds = %31
  %57 = load i32, ptr %11, align 4
  %58 = icmp sgt i32 %57, 1
  br i1 %58, label %59, label %71

59:                                               ; preds = %56
  %60 = load float, ptr %10, align 4
  %61 = load float, ptr %7, align 4
  %62 = fsub float %60, %61
  %63 = load i32, ptr %11, align 4
  %64 = sub nsw i32 %63, 1
  %65 = sitofp i32 %64 to float
  %66 = fdiv float %62, %65
  store float %66, ptr %13, align 4
  %67 = load float, ptr %7, align 4
  %68 = load float, ptr %13, align 4
  %69 = fmul float 2.500000e-01, %68
  %70 = call float @llvm.fmuladd.f32(float 7.500000e-01, float %67, float %69)
  store float %70, ptr %7, align 4
  br label %71

71:                                               ; preds = %59, %56
  %72 = load float, ptr %7, align 4
  %73 = fsub float %72, 1.000000e+00
  store float %73, ptr %7, align 4
  %74 = load float, ptr %7, align 4
  %75 = call noundef zeroext i1 @_ZN10OpenSubdiv6v3_6_03Sdc6Crease7IsSharpEf(float noundef %74)
  br i1 %75, label %76, label %78

76:                                               ; preds = %71
  %77 = load float, ptr %7, align 4
  br label %79

78:                                               ; preds = %71
  br label %79

79:                                               ; preds = %78, %76
  %80 = phi float [ %77, %76 ], [ 0.000000e+00, %78 ]
  store float %80, ptr %5, align 4
  br label %81

81:                                               ; preds = %79, %29, %25, %19
  %82 = load float, ptr %5, align 4
  ret float %82
}