; Function Attrs: mustprogress nofree norecurse nosync nounwind willreturn memory(argmem: read) uwtable
define noundef float @_ZNK10OpenSubdiv6v3_6_03Sdc6Crease30SubdivideEdgeSharpnessAtVertexEfiPKf(ptr nocapture noundef nonnull readonly align 1 dereferenceable(4) %0, float noundef %1, i32 noundef %2, ptr nocapture noundef readonly %3) local_unnamed_addr #1 align 2 {
  %5 = getelementptr inbounds nuw i8, ptr %0, i64 2
  %6 = load i8, ptr %5, align 1
  %7 = icmp eq i8 %6, 0
  %8 = icmp slt i32 %2, 2
  %or.cond = or i1 %8, %7
  %9 = fcmp ugt float %1, 0.000000e+00
  br i1 %or.cond, label %10, label %17

10:                                               ; preds = %4
  br i1 %9, label %11, label %_ZNK10OpenSubdiv6v3_6_03Sdc6Crease18decrementSharpnessEf.exit

11:                                               ; preds = %10
  %12 = fcmp ult float %1, 1.000000e+01
  br i1 %12, label %13, label %_ZNK10OpenSubdiv6v3_6_03Sdc6Crease18decrementSharpnessEf.exit

13:                                               ; preds = %11
  %14 = fcmp ogt float %1, 1.000000e+00
  br i1 %14, label %15, label %_ZNK10OpenSubdiv6v3_6_03Sdc6Crease18decrementSharpnessEf.exit

15:                                               ; preds = %13
  %16 = fadd float %1, -1.000000e+00
  br label %_ZNK10OpenSubdiv6v3_6_03Sdc6Crease18decrementSharpnessEf.exit

17:                                               ; preds = %4
  br i1 %9, label %18, label %_ZNK10OpenSubdiv6v3_6_03Sdc6Crease18decrementSharpnessEf.exit

18:                                               ; preds = %17
  %19 = fcmp ult float %1, 1.000000e+01
  br i1 %19, label %.lr.ph.preheader, label %_ZNK10OpenSubdiv6v3_6_03Sdc6Crease18decrementSharpnessEf.exit

.lr.ph.preheader:                                 ; preds = %18
  %wide.trip.count = zext nneg i32 %2 to i64
  br label %.lr.ph

.lr.ph:                                           ; preds = %.lr.ph.preheader, %.lr.ph
  %indvars.iv = phi i64 [ 0, %.lr.ph.preheader ], [ %indvars.iv.next, %.lr.ph ]
  %.02531 = phi i32 [ 0, %.lr.ph.preheader ], [ %.1, %.lr.ph ]
  %.02630 = phi float [ 0.000000e+00, %.lr.ph.preheader ], [ %.127, %.lr.ph ]
  %20 = getelementptr inbounds float, ptr %3, i64 %indvars.iv
  %21 = load float, ptr %20, align 4
  %22 = fcmp ogt float %21, 0.000000e+00
  %23 = fcmp olt float %21, 1.000000e+01
  %24 = and i1 %22, %23
  %25 = fadd float %.02630, %21
  %.127 = select i1 %24, float %25, float %.02630
  %26 = zext i1 %24 to i32
  %.1 = add nuw nsw i32 %.02531, %26
  %indvars.iv.next = add nuw nsw i64 %indvars.iv, 1
  %exitcond.not = icmp eq i64 %indvars.iv.next, %wide.trip.count
  br i1 %exitcond.not, label %._crit_edge, label %.lr.ph, !llvm.loop !9

._crit_edge:                                      ; preds = %.lr.ph
  %27 = icmp ugt i32 %.1, 1
  br i1 %27, label %28, label %35

28:                                               ; preds = %._crit_edge
  %29 = fsub float %.127, %1
  %30 = add nsw i32 %.1, -1
  %31 = uitofp nneg i32 %30 to float
  %32 = fdiv float %29, %31
  %33 = fmul float %32, 2.500000e-01
  %34 = tail call float @llvm.fmuladd.f32(float %1, float 7.500000e-01, float %33)
  br label %35

35:                                               ; preds = %28, %._crit_edge
  %.028 = phi float [ %34, %28 ], [ %1, %._crit_edge ]
  %36 = fadd float %.028, -1.000000e+00
  %37 = fcmp ogt float %36, 0.000000e+00
  %38 = select i1 %37, float %36, float 0.000000e+00
  br label %_ZNK10OpenSubdiv6v3_6_03Sdc6Crease18decrementSharpnessEf.exit

_ZNK10OpenSubdiv6v3_6_03Sdc6Crease18decrementSharpnessEf.exit: ; preds = %15, %13, %11, %10, %18, %17, %35
  %.0 = phi float [ %38, %35 ], [ 0.000000e+00, %17 ], [ 1.000000e+01, %18 ], [ %16, %15 ], [ 0.000000e+00, %10 ], [ 1.000000e+01, %11 ], [ 0.000000e+00, %13 ]
  ret float %.0
}